target datalayout = "e-m:e-p270:32:32-p271:32:32-p272:64:64-i64:64-i128:128-f80:128-n8:16:32:64-S128"
target triple = "x86_64-pc-linux-gnu"

%struct.ossl_param_st = type { ptr, i32, ptr, i64, i64 }

@.str = private unnamed_addr constant [35 x i8] c"../openssl/crypto/hpke/hpke_util.c\00", align 1
@__func__.ossl_kdf_ctx_create = private unnamed_addr constant [20 x i8] c"ossl_kdf_ctx_create\00", align 1
@.str.1 = private unnamed_addr constant [7 x i8] c"digest\00", align 1
@.str.2 = private unnamed_addr constant [11 x i8] c"properties\00", align 1

; Function Attrs: nounwind uwtable
define ptr @ossl_kdf_ctx_create(ptr noundef %0, ptr noundef %1, ptr noundef %2, ptr noundef %3) #0 {
  %5 = alloca ptr, align 8
  %6 = alloca ptr, align 8
  %7 = alloca ptr, align 8
  %8 = alloca ptr, align 8
  %9 = alloca ptr, align 8
  %10 = alloca ptr, align 8
  %11 = alloca ptr, align 8
  %12 = alloca i32, align 4
  %13 = alloca [3 x %struct.ossl_param_st], align 16
  %14 = alloca ptr, align 8
  %15 = alloca %struct.ossl_param_st, align 8
  %16 = alloca %struct.ossl_param_st, align 8
  %17 = alloca %struct.ossl_param_st, align 8
  store ptr %0, ptr %6, align 8, !tbaa !3
  store ptr %1, ptr %7, align 8, !tbaa !3
  store ptr %2, ptr %8, align 8, !tbaa !20
  store ptr %3, ptr %9, align 8, !tbaa !3
  call void @llvm.lifetime.start.p0(i64 8, ptr %10) #5
  call void @llvm.lifetime.start.p0(i64 8, ptr %11) #5
  store ptr null, ptr %11, align 8, !tbaa !29
  %18 = load ptr, ptr %8, align 8, !tbaa !20
  %19 = load ptr, ptr %6, align 8, !tbaa !3
  %20 = load ptr, ptr %9, align 8, !tbaa !3
  %21 = call ptr @EVP_KDF_fetch(ptr noundef %18, ptr noundef %19, ptr noundef %20)
  store ptr %21, ptr %10, align 8, !tbaa !35
  %22 = load ptr, ptr %10, align 8, !tbaa !35
  %23 = icmp eq ptr %22, null
  br i1 %23, label %24, label %25

24:                                               ; preds = %4
  call void @ERR_new()
  call void @ERR_set_debug(ptr noundef @.str, i32 noundef 401, ptr noundef @__func__.ossl_kdf_ctx_create)
  call void (i32, i32, ptr, ...) @ERR_set_error(i32 noundef 15, i32 noundef 524557, ptr noundef null)
  store ptr null, ptr %5, align 8
  store i32 1, ptr %12, align 4
  br label %63

25:                                               ; preds = %4
  %26 = load ptr, ptr %10, align 8, !tbaa !35
  %27 = call ptr @EVP_KDF_CTX_new(ptr noundef %26)
  store ptr %27, ptr %11, align 8, !tbaa !29
  %28 = load ptr, ptr %10, align 8, !tbaa !35
  call void @EVP_KDF_free(ptr noundef %28)
  %29 = load ptr, ptr %11, align 8, !tbaa !29
  %30 = icmp ne ptr %29, null
  br i1 %30, label %31, label %61

31:                                               ; preds = %25
  %32 = load ptr, ptr %7, align 8, !tbaa !3
  %33 = icmp ne ptr %32, null
  br i1 %33, label %34, label %61

34:                                               ; preds = %31
  call void @llvm.lifetime.start.p0(i64 120, ptr %13) #5
  call void @llvm.lifetime.start.p0(i64 8, ptr %14) #5
  %35 = getelementptr inbounds [3 x %struct.ossl_param_st], ptr %13, i64 0, i64 0
  store ptr %35, ptr %14, align 8, !tbaa !31
  %36 = load ptr, ptr %7, align 8, !tbaa !3
  %37 = icmp ne ptr %36, null
  br i1 %37, label %38, label %42

38:                                               ; preds = %34
  %39 = load ptr, ptr %14, align 8, !tbaa !31
  %40 = getelementptr inbounds nuw %struct.ossl_param_st, ptr %39, i32 1
  store ptr %40, ptr %14, align 8, !tbaa !31
  call void @llvm.lifetime.start.p0(i64 40, ptr %15) #5
  %41 = load ptr, ptr %7, align 8, !tbaa !3
  call void @OSSL_PARAM_construct_utf8_string(ptr dead_on_unwind writable sret(%struct.ossl_param_st) align 8 %15, ptr noundef @.str.1, ptr noundef %41, i64 noundef 0)
  call void @llvm.memcpy.p0.p0.i64(ptr align 8 %39, ptr align 8 %15, i64 40, i1 false), !tbaa.struct !33
  call void @llvm.lifetime.end.p0(i64 40, ptr %15) #5
  br label %42

42:                                               ; preds = %38, %34
  %43 = load ptr, ptr %9, align 8, !tbaa !3
  %44 = icmp ne ptr %43, null
  br i1 %44, label %45, label %49

45:                                               ; preds = %42
  %46 = load ptr, ptr %14, align 8, !tbaa !31
  %47 = getelementptr inbounds nuw %struct.ossl_param_st, ptr %46, i32 1
  store ptr %47, ptr %14, align 8, !tbaa !31
  call void @llvm.lifetime.start.p0(i64 40, ptr %16) #5
  %48 = load ptr, ptr %9, align 8, !tbaa !3
  call void @OSSL_PARAM_construct_utf8_string(ptr dead_on_unwind writable sret(%struct.ossl_param_st) align 8 %16, ptr noundef @.str.2, ptr noundef %48, i64 noundef 0)
  call void @llvm.memcpy.p0.p0.i64(ptr align 8 %46, ptr align 8 %16, i64 40, i1 false), !tbaa.struct !33
  call void @llvm.lifetime.end.p0(i64 40, ptr %16) #5
  br label %49

49:                                               ; preds = %45, %42
  %50 = load ptr, ptr %14, align 8, !tbaa !31
  call void @llvm.lifetime.start.p0(i64 40, ptr %17) #5
  call void @OSSL_PARAM_construct_end(ptr dead_on_unwind writable sret(%struct.ossl_param_st) align 8 %17)
  call void @llvm.memcpy.p0.p0.i64(ptr align 8 %50, ptr align 8 %17, i64 40, i1 false), !tbaa.struct !33
  call void @llvm.lifetime.end.p0(i64 40, ptr %17) #5
  %51 = load ptr, ptr %11, align 8, !tbaa !29
  %52 = getelementptr inbounds [3 x %struct.ossl_param_st], ptr %13, i64 0, i64 0
  %53 = call i32 @EVP_KDF_CTX_set_params(ptr noundef %51, ptr noundef %52)
  %54 = icmp sle i32 %53, 0
  br i1 %54, label %55, label %57

55:                                               ; preds = %49
  %56 = load ptr, ptr %11, align 8, !tbaa !29
  call void @EVP_KDF_CTX_free(ptr noundef %56)
  store ptr null, ptr %5, align 8
  store i32 1, ptr %12, align 4
  br label %58

57:                                               ; preds = %49
  store i32 0, ptr %12, align 4
  br label %58

58:                                               ; preds = %57, %55
  call void @llvm.lifetime.end.p0(i64 8, ptr %14) #5
  call void @llvm.lifetime.end.p0(i64 120, ptr %13) #5
  %59 = load i32, ptr %12, align 4
  switch i32 %59, label %63 [
    i32 0, label %60
  ]

60:                                               ; preds = %58
  br label %61

61:                                               ; preds = %60, %31, %25
  %62 = load ptr, ptr %11, align 8, !tbaa !29
  store ptr %62, ptr %5, align 8
  store i32 1, ptr %12, align 4
  br label %63

63:                                               ; preds = %61, %58, %24
  call void @llvm.lifetime.end.p0(i64 8, ptr %11) #5
  call void @llvm.lifetime.end.p0(i64 8, ptr %10) #5
  %64 = load ptr, ptr %5, align 8
  ret ptr %64
}