; Function Attrs: nounwind uwtable
define ptr @ossl_kdf_ctx_create(ptr noundef %0, ptr noundef %1, ptr noundef %2, ptr noundef %3) local_unnamed_addr #0 {
  %5 = alloca [3 x %struct.ossl_param_st], align 16
  %6 = alloca %struct.ossl_param_st, align 8
  %7 = alloca %struct.ossl_param_st, align 8
  %8 = tail call ptr @EVP_KDF_fetch(ptr noundef %2, ptr noundef %0, ptr noundef %3) #5
  %9 = icmp eq ptr %8, null
  br i1 %9, label %10, label %11

10:                                               ; preds = %4
  tail call void @ERR_new() #5
  tail call void @ERR_set_debug(ptr noundef nonnull @.str, i32 noundef 401, ptr noundef nonnull @__func__.ossl_kdf_ctx_create) #5
  tail call void (i32, i32, ptr, ...) @ERR_set_error(i32 noundef 15, i32 noundef 524557, ptr noundef null) #5
  br label %23

11:                                               ; preds = %4
  %12 = tail call ptr @EVP_KDF_CTX_new(ptr noundef nonnull %8) #5
  tail call void @EVP_KDF_free(ptr noundef nonnull %8) #5
  %13 = icmp ne ptr %12, null
  %14 = icmp ne ptr %1, null
  %or.cond = and i1 %14, %13
  br i1 %or.cond, label %15, label %23

15:                                               ; preds = %11
  call void @llvm.lifetime.start.p0(i64 120, ptr nonnull %5) #5
  %16 = getelementptr inbounds nuw i8, ptr %5, i64 40
  call void @OSSL_PARAM_construct_utf8_string(ptr dead_on_unwind nonnull writable sret(%struct.ossl_param_st) align 8 %5, ptr noundef nonnull @.str.1, ptr noundef nonnull %1, i64 noundef 0) #5
  %.not = icmp eq ptr %3, null
  br i1 %.not, label %19, label %17

17:                                               ; preds = %15
  %18 = getelementptr inbounds nuw i8, ptr %5, i64 80
  call void @llvm.lifetime.start.p0(i64 40, ptr nonnull %6) #5
  call void @OSSL_PARAM_construct_utf8_string(ptr dead_on_unwind nonnull writable sret(%struct.ossl_param_st) align 8 %6, ptr noundef nonnull @.str.2, ptr noundef nonnull %3, i64 noundef 0) #5
  call void @llvm.memcpy.p0.p0.i64(ptr noundef nonnull align 8 dereferenceable(40) %16, ptr noundef nonnull align 8 dereferenceable(40) %6, i64 40, i1 false), !tbaa.struct !24
  call void @llvm.lifetime.end.p0(i64 40, ptr nonnull %6) #5
  br label %19

19:                                               ; preds = %17, %15
  %.1 = phi ptr [ %18, %17 ], [ %16, %15 ]
  call void @llvm.lifetime.start.p0(i64 40, ptr nonnull %7) #5
  call void @OSSL_PARAM_construct_end(ptr dead_on_unwind nonnull writable sret(%struct.ossl_param_st) align 8 %7) #5
  call void @llvm.memcpy.p0.p0.i64(ptr noundef nonnull align 8 dereferenceable(40) %.1, ptr noundef nonnull align 8 dereferenceable(40) %7, i64 40, i1 false), !tbaa.struct !24
  call void @llvm.lifetime.end.p0(i64 40, ptr nonnull %7) #5
  %20 = call i32 @EVP_KDF_CTX_set_params(ptr noundef nonnull %12, ptr noundef nonnull %5) #5
  %21 = icmp sgt i32 %20, 0
  br i1 %21, label %.critedge, label %22

22:                                               ; preds = %19
  call void @EVP_KDF_CTX_free(ptr noundef nonnull %12) #5
  call void @llvm.lifetime.end.p0(i64 120, ptr nonnull %5) #5
  br label %23

.critedge:                                        ; preds = %19
  call void @llvm.lifetime.end.p0(i64 120, ptr nonnull %5) #5
  br label %23

23:                                               ; preds = %11, %.critedge, %22, %10
  %.021 = phi ptr [ null, %10 ], [ null, %22 ], [ %12, %.critedge ], [ %12, %11 ]
  ret ptr %.021
}